; ModuleID = '16/693.c'
source_filename = "16/693.c"
target datalayout = "e-m:e-p270:32:32-p271:32:32-p272:64:64-i64:64-f80:128-n8:16:32:64-S128"
target triple = "x86_64-pc-linux-gnu"

@.str = private unnamed_addr constant [3 x i8] c"%d\00", align 1
@.str.1 = private unnamed_addr constant [5 x i8] c"%d%d\00", align 1
@.str.2 = private unnamed_addr constant [7 x i8] c"%d%d%d\00", align 1
@.str.3 = private unnamed_addr constant [9 x i8] c"%d%d%d%d\00", align 1
@.str.4 = private unnamed_addr constant [11 x i8] c"%d%d%d%d%d\00", align 1

; Function Attrs: noinline nounwind uwtable
define dso_local i32 @main() #0 {
  %1 = alloca i32, align 4
  %2 = alloca i32, align 4
  %3 = alloca i32, align 4
  %4 = alloca i32, align 4
  %5 = alloca i32, align 4
  %6 = alloca i32, align 4
  %7 = alloca i32, align 4
  %8 = alloca i32, align 4
  %9 = alloca i32, align 4
  %10 = alloca i32, align 4
  %11 = alloca i32, align 4
  %12 = alloca i32, align 4
  store i32 0, i32* %1, align 4
  %13 = call i32 (i8*, ...) @__isoc99_scanf(i8* getelementptr inbounds ([3 x i8], [3 x i8]* @.str, i64 0, i64 0), i32* %2)
  %14 = load i32, i32* %2, align 4
  %15 = sdiv i32 %14, 10000
  store i32 %15, i32* %3, align 4
  %16 = load i32, i32* %2, align 4
  %17 = sdiv i32 %16, 1000
  store i32 %17, i32* %4, align 4
  %18 = load i32, i32* %2, align 4
  %19 = sdiv i32 %18, 100
  store i32 %19, i32* %5, align 4
  %20 = load i32, i32* %2, align 4
  %21 = sdiv i32 %20, 10
  store i32 %21, i32* %6, align 4
  %22 = load i32, i32* %2, align 4
  %23 = srem i32 %22, 10
  store i32 %23, i32* %7, align 4
  %24 = load i32, i32* %6, align 4
  %25 = srem i32 %24, 10
  store i32 %25, i32* %8, align 4
  %26 = load i32, i32* %5, align 4
  %27 = srem i32 %26, 10
  store i32 %27, i32* %9, align 4
  %28 = load i32, i32* %2, align 4
  %29 = sdiv i32 %28, 10
  %30 = srem i32 %29, 10
  store i32 %30, i32* %10, align 4
  %31 = load i32, i32* %2, align 4
  %32 = sdiv i32 %31, 100
  %33 = srem i32 %32, 10
  store i32 %33, i32* %11, align 4
  %34 = load i32, i32* %2, align 4
  %35 = sdiv i32 %34, 1000
  %36 = srem i32 %35, 10
  store i32 %36, i32* %12, align 4
  %37 = load i32, i32* %3, align 4
  %38 = icmp eq i32 %37, 0
  br i1 %38, label %39, label %69

39:                                               ; preds = %0
  %40 = load i32, i32* %4, align 4
  %41 = icmp eq i32 %40, 0
  br i1 %41, label %42, label %62

42:                                               ; preds = %39
  %43 = load i32, i32* %5, align 4
  %44 = icmp eq i32 %43, 0
  br i1 %44, label %45, label %56

45:                                               ; preds = %42
  %46 = load i32, i32* %6, align 4
  %47 = icmp eq i32 %46, 0
  br i1 %47, label %48, label %51

48:                                               ; preds = %45
  %49 = load i32, i32* %7, align 4
  %50 = call i32 (i8*, ...) @printf(i8* getelementptr inbounds ([3 x i8], [3 x i8]* @.str, i64 0, i64 0), i32 %49)
  br label %55

51:                                               ; preds = %45
  %52 = load i32, i32* %7, align 4
  %53 = load i32, i32* %6, align 4
  %54 = call i32 (i8*, ...) @printf(i8* getelementptr inbounds ([5 x i8], [5 x i8]* @.str.1, i64 0, i64 0), i32 %52, i32 %53)
  br label %55

55:                                               ; preds = %51, %48
  br label %61

56:                                               ; preds = %42
  %57 = load i32, i32* %7, align 4
  %58 = load i32, i32* %8, align 4
  %59 = load i32, i32* %5, align 4
  %60 = call i32 (i8*, ...) @printf(i8* getelementptr inbounds ([7 x i8], [7 x i8]* @.str.2, i64 0, i64 0), i32 %57, i32 %58, i32 %59)
  br label %61

61:                                               ; preds = %56, %55
  br label %68

62:                                               ; preds = %39
  %63 = load i32, i32* %7, align 4
  %64 = load i32, i32* %10, align 4
  %65 = load i32, i32* %9, align 4
  %66 = load i32, i32* %4, align 4
  %67 = call i32 (i8*, ...) @printf(i8* getelementptr inbounds ([9 x i8], [9 x i8]* @.str.3, i64 0, i64 0), i32 %63, i32 %64, i32 %65, i32 %66)
  br label %68

68:                                               ; preds = %62, %61
  br label %76

69:                                               ; preds = %0
  %70 = load i32, i32* %7, align 4
  %71 = load i32, i32* %10, align 4
  %72 = load i32, i32* %11, align 4
  %73 = load i32, i32* %12, align 4
  %74 = load i32, i32* %3, align 4
  %75 = call i32 (i8*, ...) @printf(i8* getelementptr inbounds ([11 x i8], [11 x i8]* @.str.4, i64 0, i64 0), i32 %70, i32 %71, i32 %72, i32 %73, i32 %74)
  br label %76

76:                                               ; preds = %69, %68
  ret i32 0
}

declare dso_local i32 @__isoc99_scanf(i8*, ...) #1

declare dso_local i32 @printf(i8*, ...) #1


!llvm.module.flags = !{!0}
!llvm.ident = !{!1}

!0 = !{i32 1, !"wchar_size", i32 4}
!1 = !{!"clang version 10.0.0-4ubuntu1 "}
